target datalayout = "e-m:e-p270:32:32-p271:32:32-p272:64:64-i64:64-i128:128-f80:128-n8:16:32:64-S128"
target triple = "x86_64-pc-linux-gnu"

%struct.USerializedSet = type { ptr, i32, i32, [8 x i16] }

; Function Attrs: mustprogress nounwind uwtable
define signext i8 @uset_serializedContains_77(ptr noundef %0, i32 noundef %1) #3 {
  %3 = alloca i8, align 1
  %4 = alloca ptr, align 8
  %5 = alloca i32, align 4
  %6 = alloca ptr, align 8
  %7 = alloca i32, align 4
  %8 = alloca i32, align 4
  %9 = alloca i32, align 4
  %10 = alloca i32, align 4
  %11 = alloca i16, align 2
  %12 = alloca i16, align 2
  %13 = alloca i32, align 4
  %14 = alloca i32, align 4
  %15 = alloca i32, align 4
  %16 = alloca i32, align 4
  %17 = alloca i32, align 4
  store ptr %0, ptr %4, align 8, !tbaa !49
  store i32 %1, ptr %5, align 4, !tbaa !3
  call void @llvm.lifetime.start.p0(i64 8, ptr %6) #7
  %18 = load ptr, ptr %4, align 8, !tbaa !49
  %19 = icmp eq ptr %18, null
  br i1 %19, label %23, label %20

20:                                               ; preds = %2
  %21 = load i32, ptr %5, align 4, !tbaa !3
  %22 = icmp ugt i32 %21, 1114111
  br i1 %22, label %23, label %24

23:                                               ; preds = %20, %2
  store i8 0, ptr %3, align 1
  store i32 1, ptr %7, align 4
  br label %238

24:                                               ; preds = %20
  %25 = load ptr, ptr %4, align 8, !tbaa !49
  %26 = getelementptr inbounds nuw %struct.USerializedSet, ptr %25, i32 0, i32 0
  %27 = load ptr, ptr %26, align 8, !tbaa !56
  store ptr %27, ptr %6, align 8, !tbaa !47
  %28 = load i32, ptr %5, align 4, !tbaa !3
  %29 = icmp sle i32 %28, 65535
  br i1 %29, label %30, label %88

30:                                               ; preds = %24
  call void @llvm.lifetime.start.p0(i64 4, ptr %8) #7
  store i32 0, ptr %8, align 4, !tbaa !3
  call void @llvm.lifetime.start.p0(i64 4, ptr %9) #7
  %31 = load ptr, ptr %4, align 8, !tbaa !49
  %32 = getelementptr inbounds nuw %struct.USerializedSet, ptr %31, i32 0, i32 1
  %33 = load i32, ptr %32, align 8, !tbaa !51
  %34 = sub nsw i32 %33, 1
  store i32 %34, ptr %9, align 4, !tbaa !3
  %35 = load i32, ptr %5, align 4, !tbaa !3
  %36 = load ptr, ptr %6, align 8, !tbaa !47
  %37 = getelementptr inbounds i16, ptr %36, i64 0
  %38 = load i16, ptr %37, align 2, !tbaa !54
  %39 = zext i16 %38 to i32
  %40 = icmp slt i32 %35, %39
  br i1 %40, label %41, label %42

41:                                               ; preds = %30
  store i32 0, ptr %9, align 4, !tbaa !3
  br label %84

42:                                               ; preds = %30
  %43 = load i32, ptr %5, align 4, !tbaa !3
  %44 = load ptr, ptr %6, align 8, !tbaa !47
  %45 = load i32, ptr %9, align 4, !tbaa !3
  %46 = sext i32 %45 to i64
  %47 = getelementptr inbounds i16, ptr %44, i64 %46
  %48 = load i16, ptr %47, align 2, !tbaa !54
  %49 = zext i16 %48 to i32
  %50 = icmp slt i32 %43, %49
  br i1 %50, label %51, label %80

51:                                               ; preds = %42
  br label %52

52:                                               ; preds = %78, %51
  call void @llvm.lifetime.start.p0(i64 4, ptr %10) #7
  %53 = load i32, ptr %8, align 4, !tbaa !3
  %54 = load i32, ptr %9, align 4, !tbaa !3
  %55 = add nsw i32 %53, %54
  %56 = ashr i32 %55, 1
  store i32 %56, ptr %10, align 4, !tbaa !3
  %57 = load i32, ptr %10, align 4, !tbaa !3
  %58 = load i32, ptr %8, align 4, !tbaa !3
  %59 = icmp eq i32 %57, %58
  br i1 %59, label %60, label %61

60:                                               ; preds = %52
  store i32 2, ptr %7, align 4
  br label %76

61:                                               ; preds = %52
  %62 = load i32, ptr %5, align 4, !tbaa !3
  %63 = load ptr, ptr %6, align 8, !tbaa !47
  %64 = load i32, ptr %10, align 4, !tbaa !3
  %65 = sext i32 %64 to i64
  %66 = getelementptr inbounds i16, ptr %63, i64 %65
  %67 = load i16, ptr %66, align 2, !tbaa !54
  %68 = zext i16 %67 to i32
  %69 = icmp slt i32 %62, %68
  br i1 %69, label %70, label %72

70:                                               ; preds = %61
  %71 = load i32, ptr %10, align 4, !tbaa !3
  store i32 %71, ptr %9, align 4, !tbaa !3
  br label %74

72:                                               ; preds = %61
  %73 = load i32, ptr %10, align 4, !tbaa !3
  store i32 %73, ptr %8, align 4, !tbaa !3
  br label %74

74:                                               ; preds = %72, %70
  br label %75

75:                                               ; preds = %74
  store i32 0, ptr %7, align 4
  br label %76

76:                                               ; preds = %75, %60
  call void @llvm.lifetime.end.p0(i64 4, ptr %10) #7
  %77 = load i32, ptr %7, align 4
  switch i32 %77, label %240 [
    i32 0, label %78
    i32 2, label %79
  ]

78:                                               ; preds = %76
  br label %52, !llvm.loop !57

79:                                               ; preds = %76
  br label %83

80:                                               ; preds = %42
  %81 = load i32, ptr %9, align 4, !tbaa !3
  %82 = add nsw i32 %81, 1
  store i32 %82, ptr %9, align 4, !tbaa !3
  br label %83

83:                                               ; preds = %80, %79
  br label %84

84:                                               ; preds = %83, %41
  %85 = load i32, ptr %9, align 4, !tbaa !3
  %86 = and i32 %85, 1
  %87 = trunc i32 %86 to i8
  store i8 %87, ptr %3, align 1
  store i32 1, ptr %7, align 4
  call void @llvm.lifetime.end.p0(i64 4, ptr %9) #7
  call void @llvm.lifetime.end.p0(i64 4, ptr %8) #7
  br label %238

88:                                               ; preds = %24
  call void @llvm.lifetime.start.p0(i64 2, ptr %11) #7
  %89 = load i32, ptr %5, align 4, !tbaa !3
  %90 = ashr i32 %89, 16
  %91 = trunc i32 %90 to i16
  store i16 %91, ptr %11, align 2, !tbaa !54
  call void @llvm.lifetime.start.p0(i64 2, ptr %12) #7
  %92 = load i32, ptr %5, align 4, !tbaa !3
  %93 = trunc i32 %92 to i16
  store i16 %93, ptr %12, align 2, !tbaa !54
  call void @llvm.lifetime.start.p0(i64 4, ptr %13) #7
  %94 = load ptr, ptr %4, align 8, !tbaa !49
  %95 = getelementptr inbounds nuw %struct.USerializedSet, ptr %94, i32 0, i32 1
  %96 = load i32, ptr %95, align 8, !tbaa !51
  store i32 %96, ptr %13, align 4, !tbaa !3
  call void @llvm.lifetime.start.p0(i64 4, ptr %14) #7
  store i32 0, ptr %14, align 4, !tbaa !3
  call void @llvm.lifetime.start.p0(i64 4, ptr %15) #7
  %97 = load ptr, ptr %4, align 8, !tbaa !49
  %98 = getelementptr inbounds nuw %struct.USerializedSet, ptr %97, i32 0, i32 2
  %99 = load i32, ptr %98, align 4, !tbaa !53
  %100 = sub nsw i32 %99, 2
  %101 = load i32, ptr %13, align 4, !tbaa !3
  %102 = sub nsw i32 %100, %101
  store i32 %102, ptr %15, align 4, !tbaa !3
  %103 = load i16, ptr %11, align 2, !tbaa !54
  %104 = zext i16 %103 to i32
  %105 = load ptr, ptr %6, align 8, !tbaa !47
  %106 = load i32, ptr %13, align 4, !tbaa !3
  %107 = sext i32 %106 to i64
  %108 = getelementptr inbounds i16, ptr %105, i64 %107
  %109 = load i16, ptr %108, align 2, !tbaa !54
  %110 = zext i16 %109 to i32
  %111 = icmp slt i32 %104, %110
  br i1 %111, label %133, label %112

112:                                              ; preds = %88
  %113 = load i16, ptr %11, align 2, !tbaa !54
  %114 = zext i16 %113 to i32
  %115 = load ptr, ptr %6, align 8, !tbaa !47
  %116 = load i32, ptr %13, align 4, !tbaa !3
  %117 = sext i32 %116 to i64
  %118 = getelementptr inbounds i16, ptr %115, i64 %117
  %119 = load i16, ptr %118, align 2, !tbaa !54
  %120 = zext i16 %119 to i32
  %121 = icmp eq i32 %114, %120
  br i1 %121, label %122, label %134

122:                                              ; preds = %112
  %123 = load i16, ptr %12, align 2, !tbaa !54
  %124 = zext i16 %123 to i32
  %125 = load ptr, ptr %6, align 8, !tbaa !47
  %126 = load i32, ptr %13, align 4, !tbaa !3
  %127 = add nsw i32 %126, 1
  %128 = sext i32 %127 to i64
  %129 = getelementptr inbounds i16, ptr %125, i64 %128
  %130 = load i16, ptr %129, align 2, !tbaa !54
  %131 = zext i16 %130 to i32
  %132 = icmp slt i32 %124, %131
  br i1 %132, label %133, label %134

133:                                              ; preds = %122, %88
  store i32 0, ptr %15, align 4, !tbaa !3
  br label %230

134:                                              ; preds = %122, %112
  %135 = load i16, ptr %11, align 2, !tbaa !54
  %136 = zext i16 %135 to i32
  %137 = load ptr, ptr %6, align 8, !tbaa !47
  %138 = load i32, ptr %13, align 4, !tbaa !3
  %139 = load i32, ptr %15, align 4, !tbaa !3
  %140 = add nsw i32 %138, %139
  %141 = sext i32 %140 to i64
  %142 = getelementptr inbounds i16, ptr %137, i64 %141
  %143 = load i16, ptr %142, align 2, !tbaa !54
  %144 = zext i16 %143 to i32
  %145 = icmp slt i32 %136, %144
  br i1 %145, label %171, label %146

146:                                              ; preds = %134
  %147 = load i16, ptr %11, align 2, !tbaa !54
  %148 = zext i16 %147 to i32
  %149 = load ptr, ptr %6, align 8, !tbaa !47
  %150 = load i32, ptr %13, align 4, !tbaa !3
  %151 = load i32, ptr %15, align 4, !tbaa !3
  %152 = add nsw i32 %150, %151
  %153 = sext i32 %152 to i64
  %154 = getelementptr inbounds i16, ptr %149, i64 %153
  %155 = load i16, ptr %154, align 2, !tbaa !54
  %156 = zext i16 %155 to i32
  %157 = icmp eq i32 %148, %156
  br i1 %157, label %158, label %226

158:                                              ; preds = %146
  %159 = load i16, ptr %12, align 2, !tbaa !54
  %160 = zext i16 %159 to i32
  %161 = load ptr, ptr %6, align 8, !tbaa !47
  %162 = load i32, ptr %13, align 4, !tbaa !3
  %163 = load i32, ptr %15, align 4, !tbaa !3
  %164 = add nsw i32 %162, %163
  %165 = add nsw i32 %164, 1
  %166 = sext i32 %165 to i64
  %167 = getelementptr inbounds i16, ptr %161, i64 %166
  %168 = load i16, ptr %167, align 2, !tbaa !54
  %169 = zext i16 %168 to i32
  %170 = icmp slt i32 %160, %169
  br i1 %170, label %171, label %226

171:                                              ; preds = %158, %134
  br label %172

172:                                              ; preds = %224, %171
  call void @llvm.lifetime.start.p0(i64 4, ptr %16) #7
  %173 = load i32, ptr %14, align 4, !tbaa !3
  %174 = load i32, ptr %15, align 4, !tbaa !3
  %175 = add nsw i32 %173, %174
  %176 = ashr i32 %175, 1
  %177 = and i32 %176, -2
  store i32 %177, ptr %16, align 4, !tbaa !3
  call void @llvm.lifetime.start.p0(i64 4, ptr %17) #7
  %178 = load i32, ptr %16, align 4, !tbaa !3
  %179 = load i32, ptr %13, align 4, !tbaa !3
  %180 = add nsw i32 %178, %179
  store i32 %180, ptr %17, align 4, !tbaa !3
  %181 = load i32, ptr %16, align 4, !tbaa !3
  %182 = load i32, ptr %14, align 4, !tbaa !3
  %183 = icmp eq i32 %181, %182
  br i1 %183, label %184, label %185

184:                                              ; preds = %172
  store i32 4, ptr %7, align 4
  br label %222

185:                                              ; preds = %172
  %186 = load i16, ptr %11, align 2, !tbaa !54
  %187 = zext i16 %186 to i32
  %188 = load ptr, ptr %6, align 8, !tbaa !47
  %189 = load i32, ptr %17, align 4, !tbaa !3
  %190 = sext i32 %189 to i64
  %191 = getelementptr inbounds i16, ptr %188, i64 %190
  %192 = load i16, ptr %191, align 2, !tbaa !54
  %193 = zext i16 %192 to i32
  %194 = icmp slt i32 %187, %193
  br i1 %194, label %216, label %195

195:                                              ; preds = %185
  %196 = load i16, ptr %11, align 2, !tbaa !54
  %197 = zext i16 %196 to i32
  %198 = load ptr, ptr %6, align 8, !tbaa !47
  %199 = load i32, ptr %17, align 4, !tbaa !3
  %200 = sext i32 %199 to i64
  %201 = getelementptr inbounds i16, ptr %198, i64 %200
  %202 = load i16, ptr %201, align 2, !tbaa !54
  %203 = zext i16 %202 to i32
  %204 = icmp eq i32 %197, %203
  br i1 %204, label %205, label %218

205:                                              ; preds = %195
  %206 = load i16, ptr %12, align 2, !tbaa !54
  %207 = zext i16 %206 to i32
  %208 = load ptr, ptr %6, align 8, !tbaa !47
  %209 = load i32, ptr %17, align 4, !tbaa !3
  %210 = add nsw i32 %209, 1
  %211 = sext i32 %210 to i64
  %212 = getelementptr inbounds i16, ptr %208, i64 %211
  %213 = load i16, ptr %212, align 2, !tbaa !54
  %214 = zext i16 %213 to i32
  %215 = icmp slt i32 %207, %214
  br i1 %215, label %216, label %218

216:                                              ; preds = %205, %185
  %217 = load i32, ptr %16, align 4, !tbaa !3
  store i32 %217, ptr %15, align 4, !tbaa !3
  br label %220

218:                                              ; preds = %205, %195
  %219 = load i32, ptr %16, align 4, !tbaa !3
  store i32 %219, ptr %14, align 4, !tbaa !3
  br label %220

220:                                              ; preds = %218, %216
  br label %221

221:                                              ; preds = %220
  store i32 0, ptr %7, align 4
  br label %222

222:                                              ; preds = %221, %184
  call void @llvm.lifetime.end.p0(i64 4, ptr %17) #7
  call void @llvm.lifetime.end.p0(i64 4, ptr %16) #7
  %223 = load i32, ptr %7, align 4
  switch i32 %223, label %240 [
    i32 0, label %224
    i32 4, label %225
  ]

224:                                              ; preds = %222
  br label %172, !llvm.loop !59

225:                                              ; preds = %222
  br label %229

226:                                              ; preds = %158, %146
  %227 = load i32, ptr %15, align 4, !tbaa !3
  %228 = add nsw i32 %227, 2
  store i32 %228, ptr %15, align 4, !tbaa !3
  br label %229

229:                                              ; preds = %226, %225
  br label %230

230:                                              ; preds = %229, %133
  %231 = load i32, ptr %15, align 4, !tbaa !3
  %232 = load i32, ptr %13, align 4, !tbaa !3
  %233 = shl i32 %232, 1
  %234 = add nsw i32 %231, %233
  %235 = and i32 %234, 2
  %236 = icmp ne i32 %235, 0
  %237 = zext i1 %236 to i8
  store i8 %237, ptr %3, align 1
  store i32 1, ptr %7, align 4
  call void @llvm.lifetime.end.p0(i64 4, ptr %15) #7
  call void @llvm.lifetime.end.p0(i64 4, ptr %14) #7
  call void @llvm.lifetime.end.p0(i64 4, ptr %13) #7
  call void @llvm.lifetime.end.p0(i64 2, ptr %12) #7
  call void @llvm.lifetime.end.p0(i64 2, ptr %11) #7
  br label %238

238:                                              ; preds = %230, %84, %23
  call void @llvm.lifetime.end.p0(i64 8, ptr %6) #7
  %239 = load i8, ptr %3, align 1
  ret i8 %239

240:                                              ; preds = %222, %76
  unreachable
}