; Function Attrs: mustprogress nofree norecurse nosync nounwind willreturn memory(read, inaccessiblemem: none) uwtable
define signext range(i8 0, 2) i8 @uset_serializedContains_77(ptr noundef readonly %0, i32 noundef %1) local_unnamed_addr #8 {
  %3 = icmp eq ptr %0, null
  %4 = icmp ugt i32 %1, 1114111
  %or.cond = or i1 %3, %4
  br i1 %or.cond, label %103, label %5

5:                                                ; preds = %2
  %6 = load ptr, ptr %0, align 8, !tbaa !34
  %7 = icmp samesign ult i32 %1, 65536
  br i1 %7, label %8, label %34

8:                                                ; preds = %5
  %9 = load i16, ptr %6, align 2, !tbaa !32
  %10 = zext i16 %9 to i32
  %11 = icmp samesign ult i32 %1, %10
  br i1 %11, label %.thread, label %12

12:                                               ; preds = %8
  %13 = getelementptr inbounds nuw i8, ptr %0, i64 8
  %14 = load i32, ptr %13, align 8, !tbaa !29
  %15 = add nsw i32 %14, -1
  %16 = sext i32 %15 to i64
  %17 = getelementptr inbounds i16, ptr %6, i64 %16
  %18 = load i16, ptr %17, align 2, !tbaa !32
  %19 = zext i16 %18 to i32
  %20 = icmp samesign ult i32 %1, %19
  br i1 %20, label %.preheader, label %.thread

.preheader:                                       ; preds = %12
  %21 = icmp ult i32 %15, 2
  br i1 %21, label %.thread, label %.lr.ph106.preheader

.lr.ph106.preheader:                              ; preds = %.preheader
  %22 = ashr i32 %15, 1
  br label %.lr.ph106

.lr.ph106:                                        ; preds = %.lr.ph106.preheader, %.lr.ph106
  %23 = phi i32 [ %30, %.lr.ph106 ], [ %22, %.lr.ph106.preheader ]
  %.076105 = phi i32 [ %.076., %.lr.ph106 ], [ 0, %.lr.ph106.preheader ]
  %.180104 = phi i32 [ %..180, %.lr.ph106 ], [ %15, %.lr.ph106.preheader ]
  %24 = sext i32 %23 to i64
  %25 = getelementptr inbounds i16, ptr %6, i64 %24
  %26 = load i16, ptr %25, align 2, !tbaa !32
  %27 = zext i16 %26 to i32
  %28 = icmp samesign ult i32 %1, %27
  %..180 = select i1 %28, i32 %23, i32 %.180104
  %.076. = select i1 %28, i32 %.076105, i32 %23
  %29 = add nsw i32 %.076., %..180
  %30 = ashr i32 %29, 1
  %31 = icmp eq i32 %30, %.076.
  br i1 %31, label %.thread, label %.lr.ph106

.thread:                                          ; preds = %.lr.ph106, %.preheader, %12, %8
  %.079 = phi i32 [ 0, %8 ], [ %14, %12 ], [ %15, %.preheader ], [ %..180, %.lr.ph106 ]
  %32 = trunc i32 %.079 to i8
  %33 = and i8 %32, 1
  br label %103

34:                                               ; preds = %5
  %35 = lshr i32 %1, 16
  %36 = getelementptr inbounds nuw i8, ptr %0, i64 8
  %37 = load i32, ptr %36, align 8, !tbaa !29
  %38 = getelementptr inbounds nuw i8, ptr %0, i64 12
  %39 = load i32, ptr %38, align 4, !tbaa !35
  %40 = add nsw i32 %39, -2
  %41 = sub nsw i32 %40, %37
  %42 = sext i32 %37 to i64
  %43 = getelementptr inbounds i16, ptr %6, i64 %42
  %44 = load i16, ptr %43, align 2, !tbaa !32
  %45 = zext i16 %44 to i32
  %46 = icmp samesign ult i32 %35, %45
  br i1 %46, label %.thread97, label %47

47:                                               ; preds = %34
  %48 = icmp eq i32 %35, %45
  br i1 %48, label %49, label %55

49:                                               ; preds = %47
  %50 = and i32 %1, 65535
  %51 = getelementptr i8, ptr %43, i64 2
  %52 = load i16, ptr %51, align 2, !tbaa !32
  %53 = zext i16 %52 to i32
  %54 = icmp samesign ult i32 %50, %53
  br i1 %54, label %.thread97, label %55

55:                                               ; preds = %49, %47
  %56 = sext i32 %40 to i64
  %57 = getelementptr inbounds i16, ptr %6, i64 %56
  %58 = load i16, ptr %57, align 2, !tbaa !32
  %59 = zext i16 %58 to i32
  %60 = icmp samesign ult i32 %35, %59
  br i1 %60, label %71, label %61

61:                                               ; preds = %55
  %62 = icmp eq i32 %35, %59
  br i1 %62, label %63, label %97

63:                                               ; preds = %61
  %64 = and i32 %1, 65535
  %65 = sext i32 %39 to i64
  %66 = getelementptr i16, ptr %6, i64 %65
  %67 = getelementptr i8, ptr %66, i64 -2
  %68 = load i16, ptr %67, align 2, !tbaa !32
  %69 = zext i16 %68 to i32
  %70 = icmp samesign ult i32 %64, %69
  br i1 %70, label %71, label %97

71:                                               ; preds = %63, %55
  %72 = ashr i32 %41, 1
  %73 = and i32 %72, -2
  %74 = icmp eq i32 %73, 0
  br i1 %74, label %.thread97, label %.lr.ph

.lr.ph:                                           ; preds = %71
  %75 = and i32 %1, 65535
  br label %76

76:                                               ; preds = %.lr.ph, %92
  %77 = phi i32 [ %73, %.lr.ph ], [ %95, %92 ]
  %.172103 = phi i32 [ %41, %.lr.ph ], [ %.2, %92 ]
  %.073102 = phi i32 [ 0, %.lr.ph ], [ %.174, %92 ]
  %78 = add nsw i32 %77, %37
  %79 = sext i32 %78 to i64
  %80 = getelementptr inbounds i16, ptr %6, i64 %79
  %81 = load i16, ptr %80, align 2, !tbaa !32
  %82 = zext i16 %81 to i32
  %83 = icmp samesign ult i32 %35, %82
  br i1 %83, label %92, label %84

84:                                               ; preds = %76
  %85 = icmp eq i32 %35, %82
  br i1 %85, label %86, label %91

86:                                               ; preds = %84
  %87 = getelementptr i8, ptr %80, i64 2
  %88 = load i16, ptr %87, align 2, !tbaa !32
  %89 = zext i16 %88 to i32
  %90 = icmp samesign ult i32 %75, %89
  br i1 %90, label %92, label %91

91:                                               ; preds = %86, %84
  br label %92

92:                                               ; preds = %91, %86, %76
  %.174 = phi i32 [ %77, %91 ], [ %.073102, %86 ], [ %.073102, %76 ]
  %.2 = phi i32 [ %.172103, %91 ], [ %77, %86 ], [ %77, %76 ]
  %93 = add nsw i32 %.2, %.174
  %94 = ashr i32 %93, 1
  %95 = and i32 %94, -2
  %96 = icmp eq i32 %95, %.174
  br i1 %96, label %.thread97, label %76

97:                                               ; preds = %63, %61
  %98 = add nsw i32 %41, 2
  br label %.thread97

.thread97:                                        ; preds = %92, %71, %34, %49, %97
  %.071 = phi i32 [ %98, %97 ], [ 0, %49 ], [ 0, %34 ], [ %41, %71 ], [ %.2, %92 ]
  %99 = lshr i32 %.071, 1
  %100 = add i32 %99, %37
  %101 = trunc i32 %100 to i8
  %102 = and i8 %101, 1
  br label %103

103:                                              ; preds = %2, %.thread97, %.thread
  %.0 = phi i8 [ %33, %.thread ], [ %102, %.thread97 ], [ 0, %2 ]
  ret i8 %.0
}